Certificate:
    Data:
        Version: 3 (0x2)
        Serial Number:
            67:33:84:1f:98:9d:6e:ee:26:02:b5:de:3d:7f:15:80
        Signature Algorithm: sha256WithRSAEncryption
        Issuer: CN=api
        Validity
            Not Before: Apr 23 01:04:30 2025 GMT
            Not After : Apr 23 01:04:30 2026 GMT
        Subject: CN=api
        Subject Public Key Info:
            Public Key Algorithm: rsaEncryption
                Public-Key: (2048 bit)
                Modulus:
                    00:b9:07:f9:c1:b8:bc:97:2b:2e:dd:af:d5:4a:6e:
                    76:a0:55:fe:05:a4:17:0c:13:55:f5:7f:e7:cd:fd:
                    75:fd:63:e0:ae:09:30:6e:44:7c:62:77:6e:18:c9:
                    ab:16:b1:99:7a:4c:14:2f:09:05:d3:29:ae:2f:a3:
                    15:58:7e:6a:1d:0a:37:b2:5d:52:a0:9f:87:9d:91:
                    41:ab:2a:6d:52:53:31:cb:f8:35:06:1b:5c:51:28:
                    a7:1b:66:6d:ff:cc:dd:c8:2d:7c:4f:c2:07:64:d3:
                    2d:57:fe:28:37:30:c7:a4:62:24:ae:e2:8a:3a:7a:
                    ce:6d:6b:6f:74:8e:79:00:9a:81:1b:2a:90:3f:19:
                    cd:a9:8e:94:38:a6:c9:bc:79:da:bb:62:32:df:5b:
                    b7:a0:be:b3:ff:0f:d4:89:b2:a1:d2:1b:f4:cd:aa:
                    88:52:b6:12:41:60:70:d5:4a:02:2d:c3:b0:84:65:
                    91:e9:a5:b4:b4:c1:9b:9b:22:c9:c0:8b:6b:8d:1c:
                    1e:d5:d6:ef:28:f2:83:04:8f:90:74:3e:47:53:8d:
                    5d:68:61:5f:04:75:b6:43:d9:a8:f4:65:30:11:8c:
                    b4:66:59:cd:4d:c2:30:ba:14:3c:fa:c3:ea:c1:5c:
                    ec:71:72:67:97:b5:3c:3b:55:88:0c:b8:09:1c:a7:
                    39:5d
                Exponent: 65537 (0x10001)
        X509v3 extensions:
            X509v3 Basic Constraints: 
                CA:FALSE
            X509v3 Subject Key Identifier: 
                B9:91:6C:D9:EC:37:0F:4D:D8:C5:28:5E:DF:CD:8F:B9:0A:4D:53:80
            X509v3 Authority Key Identifier: 
                keyid:C4:6B:FB:F0:5E:75:DC:D2:B3:EB:F7:68:C3:2E:FB:F4:AB:81:B1:48
                DirName:/CN=api
                serial:20:FE:A2:47:07:D9:C3:18:78:E6:A2:C5:24:AA:90:B5:18:BF:C1:EE
            X509v3 Extended Key Usage: 
                TLS Web Server Authentication
            X509v3 Key Usage: 
                Digital Signature, Key Encipherment
            X509v3 Subject Alternative Name: 
                DNS:api
    Signature Algorithm: sha256WithRSAEncryption
    Signature Value:
        2e:83:92:6d:e3:dd:80:45:a8:03:18:78:dd:53:2e:4b:2a:15:
        6a:af:6d:f4:80:4d:13:61:b1:3b:6e:4e:ce:06:8c:e1:bb:59:
        24:ca:75:81:22:28:ca:a4:d9:8f:68:fa:58:69:f7:49:ad:85:
        f3:40:ed:d8:32:af:b3:94:57:b0:c2:f7:9c:57:6d:c8:4e:a2:
        2b:96:04:37:32:94:2e:18:03:0e:2c:d0:5e:90:9b:fe:22:79:
        87:58:db:87:2e:e7:f0:1c:de:02:e3:0c:52:90:a1:ef:5b:83:
        9a:f3:53:c2:bd:41:c8:94:d7:49:a3:ca:5d:de:3d:be:b5:27:
        f0:66:2c:e6:78:74:61:f2:15:32:57:f3:4e:cc:63:bc:e3:06:
        e9:fe:1b:d5:bf:a6:ac:1e:5f:ea:ec:76:58:14:26:5f:b1:db:
        ff:33:2c:3e:04:e4:fc:dd:37:90:05:a5:93:4f:41:c2:e7:50:
        db:da:a5:e8:9c:61:4a:36:3b:a0:6c:3e:39:a1:88:cd:b1:6f:
        0d:31:f4:75:fd:54:3f:a1:6d:af:d7:dc:ec:20:4e:07:54:12:
        13:8a:ab:25:c9:50:5d:00:8a:fc:9e:ae:4e:9b:17:78:f4:89:
        ad:bb:85:c6:5d:a2:8c:69:5b:02:71:c8:ef:b4:ef:aa:0f:2f:
        f1:c3:18:10
-----BEGIN CERTIFICATE-----
MIIDUTCCAjmgAwIBAgIQZzOEH5idbu4mArXePX8VgDANBgkqhkiG9w0BAQsFADAO
MQwwCgYDVQQDDANhcGkwHhcNMjUwNDIzMDEwNDMwWhcNMjYwNDIzMDEwNDMwWjAO
MQwwCgYDVQQDDANhcGkwggEiMA0GCSqGSIb3DQEBAQUAA4IBDwAwggEKAoIBAQC5
B/nBuLyXKy7dr9VKbnagVf4FpBcME1X1f+fN/XX9Y+CuCTBuRHxid24YyasWsZl6
TBQvCQXTKa4voxVYfmodCjeyXVKgn4edkUGrKm1SUzHL+DUGG1xRKKcbZm3/zN3I
LXxPwgdk0y1X/ig3MMekYiSu4oo6es5ta290jnkAmoEbKpA/Gc2pjpQ4psm8edq7
YjLfW7egvrP/D9SJsqHSG/TNqohSthJBYHDVSgItw7CEZZHppbS0wZubIsnAi2uN
HB7V1u8o8oMEj5B0PkdTjV1oYV8EdbZD2aj0ZTARjLRmWc1NwjC6FDz6w+rBXOxx
cmeXtTw7VYgMuAkcpzldAgMBAAGjgaowgacwCQYDVR0TBAIwADAdBgNVHQ4EFgQU
uZFs2ew3D03YxShe382PuQpNU4AwSQYDVR0jBEIwQIAUxGv78F513NKz6/dowy77
9KuBsUihEqQQMA4xDDAKBgNVBAMMA2FwaYIUIP6iRwfZwxh45qLFJKqQtRi/we4w
EwYDVR0lBAwwCgYIKwYBBQUHAwEwCwYDVR0PBAQDAgWgMA4GA1UdEQQHMAWCA2Fw
aTANBgkqhkiG9w0BAQsFAAOCAQEALoOSbePdgEWoAxh43VMuSyoVaq9t9IBNE2Gx
O25OzgaM4btZJMp1gSIoyqTZj2j6WGn3Sa2F80Dt2DKvs5RXsML3nFdtyE6iK5YE
NzKULhgDDizQXpCb/iJ5h1jbhy7n8BzeAuMMUpCh71uDmvNTwr1ByJTXSaPKXd49
vrUn8GYs5nh0YfIVMlfzTsxjvOMG6f4b1b+mrB5f6ux2WBQmX7Hb/zMsPgTk/N03
kAWlk09BwudQ29ql6JxhSjY7oGw+OaGIzbFvDTH0df1UP6Ftr9fc7CBOB1QSE4qr
JclQXQCK/J6uTpsXePSJrbuFxl2ijGlbAnHI77Tvqg8v8cMYEA==
-----END CERTIFICATE-----
